target datalayout = "e-m:e-p270:32:32-p271:32:32-p272:64:64-i64:64-i128:128-f80:128-n8:16:32:64-S128"
target triple = "x86_64-pc-linux-gnu"

%"struct.OpenImageIO::v3_1_0::TypeDesc" = type { i8, i8, i8, i8, i32 }
%"class.OpenImageIO::v3_1_0::ImageSpec" = type { i32, i32, i32, i32, i32, i32, i32, i32, i32, i32, i32, i32, i32, i32, i32, i32, %"struct.OpenImageIO::v3_1_0::TypeDesc", %"class.std::vector", %"class.std::vector.4", i32, i32, i8, %"class.OpenImageIO::v3_1_0::ParamValueList" }
%"class.std::vector" = type { %"struct.std::_Vector_base" }
%"struct.std::_Vector_base" = type { %"struct.std::_Vector_base<OpenImageIO::v3_1_0::TypeDesc, std::allocator<OpenImageIO::v3_1_0::TypeDesc>>::_Vector_impl" }
%"struct.std::_Vector_base<OpenImageIO::v3_1_0::TypeDesc, std::allocator<OpenImageIO::v3_1_0::TypeDesc>>::_Vector_impl" = type { %"struct.std::_Vector_base<OpenImageIO::v3_1_0::TypeDesc, std::allocator<OpenImageIO::v3_1_0::TypeDesc>>::_Vector_impl_data" }
%"struct.std::_Vector_base<OpenImageIO::v3_1_0::TypeDesc, std::allocator<OpenImageIO::v3_1_0::TypeDesc>>::_Vector_impl_data" = type { ptr, ptr, ptr }
%"class.std::vector.4" = type { %"struct.std::_Vector_base.5" }
%"struct.std::_Vector_base.5" = type { %"struct.std::_Vector_base<std::__cxx11::basic_string<char>, std::allocator<std::__cxx11::basic_string<char>>>::_Vector_impl" }
%"struct.std::_Vector_base<std::__cxx11::basic_string<char>, std::allocator<std::__cxx11::basic_string<char>>>::_Vector_impl" = type { %"struct.std::_Vector_base<std::__cxx11::basic_string<char>, std::allocator<std::__cxx11::basic_string<char>>>::_Vector_impl_data" }
%"struct.std::_Vector_base<std::__cxx11::basic_string<char>, std::allocator<std::__cxx11::basic_string<char>>>::_Vector_impl_data" = type { ptr, ptr, ptr }
%"class.OpenImageIO::v3_1_0::ParamValueList" = type { %"class.std::vector.9" }
%"class.std::vector.9" = type { %"struct.std::_Vector_base.10" }
%"struct.std::_Vector_base.10" = type { %"struct.std::_Vector_base<OpenImageIO::v3_1_0::ParamValue, std::allocator<OpenImageIO::v3_1_0::ParamValue>>::_Vector_impl" }
%"struct.std::_Vector_base<OpenImageIO::v3_1_0::ParamValue, std::allocator<OpenImageIO::v3_1_0::ParamValue>>::_Vector_impl" = type { %"struct.std::_Vector_base<OpenImageIO::v3_1_0::ParamValue, std::allocator<OpenImageIO::v3_1_0::ParamValue>>::_Vector_impl_data" }
%"struct.std::_Vector_base<OpenImageIO::v3_1_0::ParamValue, std::allocator<OpenImageIO::v3_1_0::ParamValue>>::_Vector_impl_data" = type { ptr, ptr, ptr }
%"class.OpenImageIO::v3_1_0::ImageInput" = type { ptr, %"class.OpenImageIO::v3_1_0::ImageSpec", %"class.std::unique_ptr" }
%"class.std::unique_ptr" = type { %"struct.std::__uniq_ptr_data" }
%"struct.std::__uniq_ptr_data" = type { %"class.std::__uniq_ptr_impl" }
%"class.std::__uniq_ptr_impl" = type { %"class.std::tuple" }
%"class.std::tuple" = type { %"struct.std::_Tuple_impl" }
%"struct.std::_Tuple_impl" = type { %"struct.std::_Tuple_impl.14", %"struct.std::_Head_base.15" }
%"struct.std::_Tuple_impl.14" = type { %"struct.std::_Head_base" }
%"struct.std::_Head_base" = type { ptr }
%"struct.std::_Head_base.15" = type { ptr }

@_ZN11OpenImageIO6v3_1_011TypeUnknownE = linkonce_odr hidden constant %"struct.OpenImageIO::v3_1_0::TypeDesc" { i8 0, i8 1, i8 0, i8 0, i32 0 }, comdat, align 4

; Function Attrs: mustprogress uwtable
define hidden noundef zeroext i1 @_ZN11OpenImageIO6v3_1_012OpenEXRInput30read_native_tiles_individuallyEiiiiiiiiiiPvll(ptr noundef nonnull align 8 dereferenceable(320) %0, i32 noundef %1, i32 noundef %2, i32 noundef %3, i32 noundef %4, i32 noundef %5, i32 noundef %6, i32 noundef %7, i32 noundef %8, i32 noundef %9, i32 noundef %10, ptr noundef %11, i64 noundef %12, i64 noundef %13) #8 align 2 {
  %15 = alloca ptr, align 8
  %16 = alloca i32, align 4
  %17 = alloca i32, align 4
  %18 = alloca i32, align 4
  %19 = alloca i32, align 4
  %20 = alloca i32, align 4
  %21 = alloca i32, align 4
  %22 = alloca i32, align 4
  %23 = alloca i32, align 4
  %24 = alloca i32, align 4
  %25 = alloca i32, align 4
  %26 = alloca ptr, align 8
  %27 = alloca i64, align 8
  %28 = alloca i64, align 8
  %29 = alloca i8, align 1
  %30 = alloca i32, align 4
  %31 = alloca i32, align 4
  %32 = alloca i32, align 4
  %33 = alloca i32, align 4
  %34 = alloca i32, align 4
  %35 = alloca ptr, align 8
  %36 = alloca %"struct.OpenImageIO::v3_1_0::TypeDesc", align 4
  store ptr %0, ptr %15, align 8, !tbaa !59
  store i32 %1, ptr %16, align 4, !tbaa !14
  store i32 %2, ptr %17, align 4, !tbaa !14
  store i32 %3, ptr %18, align 4, !tbaa !14
  store i32 %4, ptr %19, align 4, !tbaa !14
  store i32 %5, ptr %20, align 4, !tbaa !14
  store i32 %6, ptr %21, align 4, !tbaa !14
  store i32 %7, ptr %22, align 4, !tbaa !14
  store i32 %8, ptr %23, align 4, !tbaa !14
  store i32 %9, ptr %24, align 4, !tbaa !14
  store i32 %10, ptr %25, align 4, !tbaa !14
  store ptr %11, ptr %26, align 8, !tbaa !355
  store i64 %12, ptr %27, align 8, !tbaa !32
  store i64 %13, ptr %28, align 8, !tbaa !32
  %37 = load ptr, ptr %15, align 8
  call void @llvm.lifetime.start.p0(i64 1, ptr %29) #5
  store i8 1, ptr %29, align 1, !tbaa !142
  call void @llvm.lifetime.start.p0(i64 4, ptr %30) #5
  %38 = load i32, ptr %20, align 4, !tbaa !14
  store i32 %38, ptr %30, align 4, !tbaa !14
  br label %39

39:                                               ; preds = %106, %14
  %40 = load i32, ptr %30, align 4, !tbaa !14
  %41 = load i32, ptr %21, align 4, !tbaa !14
  %42 = icmp slt i32 %40, %41
  br i1 %42, label %44, label %43

43:                                               ; preds = %39
  store i32 2, ptr %31, align 4
  call void @llvm.lifetime.end.p0(i64 4, ptr %30) #5
  br label %112

44:                                               ; preds = %39
  call void @llvm.lifetime.start.p0(i64 4, ptr %32) #5
  %45 = load i32, ptr %30, align 4, !tbaa !14
  %46 = getelementptr inbounds nuw %"class.OpenImageIO::v3_1_0::ImageInput", ptr %37, i32 0, i32 1
  %47 = getelementptr inbounds nuw %"class.OpenImageIO::v3_1_0::ImageSpec", ptr %46, i32 0, i32 13
  %48 = load i32, ptr %47, align 4, !tbaa !436
  %49 = add nsw i32 %45, %48
  store i32 %49, ptr %32, align 4, !tbaa !14
  call void @llvm.lifetime.start.p0(i64 4, ptr %33) #5
  %50 = load i32, ptr %18, align 4, !tbaa !14
  store i32 %50, ptr %33, align 4, !tbaa !14
  br label %51

51:                                               ; preds = %99, %44
  %52 = load i32, ptr %33, align 4, !tbaa !14
  %53 = load i32, ptr %19, align 4, !tbaa !14
  %54 = icmp slt i32 %52, %53
  br i1 %54, label %56, label %55

55:                                               ; preds = %51
  store i32 5, ptr %31, align 4
  call void @llvm.lifetime.end.p0(i64 4, ptr %33) #5
  br label %105

56:                                               ; preds = %51
  call void @llvm.lifetime.start.p0(i64 4, ptr %34) #5
  %57 = load i32, ptr %33, align 4, !tbaa !14
  %58 = getelementptr inbounds nuw %"class.OpenImageIO::v3_1_0::ImageInput", ptr %37, i32 0, i32 1
  %59 = getelementptr inbounds nuw %"class.OpenImageIO::v3_1_0::ImageSpec", ptr %58, i32 0, i32 12
  %60 = load i32, ptr %59, align 8, !tbaa !435
  %61 = add nsw i32 %57, %60
  store i32 %61, ptr %34, align 4, !tbaa !14
  call void @llvm.lifetime.start.p0(i64 8, ptr %35) #5
  %62 = load ptr, ptr %26, align 8, !tbaa !355
  %63 = load i32, ptr %30, align 4, !tbaa !14
  %64 = load i32, ptr %20, align 4, !tbaa !14
  %65 = sub nsw i32 %63, %64
  %66 = sext i32 %65 to i64
  %67 = load i64, ptr %28, align 8, !tbaa !32
  %68 = mul nsw i64 %66, %67
  %69 = getelementptr inbounds i8, ptr %62, i64 %68
  %70 = load i32, ptr %33, align 4, !tbaa !14
  %71 = load i32, ptr %18, align 4, !tbaa !14
  %72 = sub nsw i32 %70, %71
  %73 = sext i32 %72 to i64
  %74 = load i64, ptr %27, align 8, !tbaa !32
  %75 = mul nsw i64 %73, %74
  %76 = getelementptr inbounds i8, ptr %69, i64 %75
  store ptr %76, ptr %35, align 8, !tbaa !12
  %77 = load i32, ptr %16, align 4, !tbaa !14
  %78 = load i32, ptr %17, align 4, !tbaa !14
  %79 = load i32, ptr %33, align 4, !tbaa !14
  %80 = load i32, ptr %34, align 4, !tbaa !14
  %81 = load i32, ptr %30, align 4, !tbaa !14
  %82 = load i32, ptr %32, align 4, !tbaa !14
  %83 = load i32, ptr %22, align 4, !tbaa !14
  %84 = load i32, ptr %23, align 4, !tbaa !14
  %85 = load i32, ptr %24, align 4, !tbaa !14
  %86 = load i32, ptr %25, align 4, !tbaa !14
  call void @llvm.memcpy.p0.p0.i64(ptr align 4 %36, ptr align 4 @_ZN11OpenImageIO6v3_1_011TypeUnknownE, i64 8, i1 false), !tbaa.struct !158
  %87 = load ptr, ptr %35, align 8, !tbaa !12
  %88 = load i64, ptr %27, align 8, !tbaa !32
  %89 = load i64, ptr %28, align 8, !tbaa !32
  %90 = load i64, ptr %36, align 4
  %91 = call noundef zeroext i1 @_ZN11OpenImageIO6v3_1_010ImageInput10read_tilesEiiiiiiiiiiNS0_8TypeDescEPvlll(ptr noundef nonnull align 8 dereferenceable(184) %37, i32 noundef %77, i32 noundef %78, i32 noundef %79, i32 noundef %80, i32 noundef %81, i32 noundef %82, i32 noundef %83, i32 noundef %84, i32 noundef %85, i32 noundef %86, i64 %90, ptr noundef %87, i64 noundef %88, i64 noundef %89, i64 noundef -9223372036854775808)
  %92 = zext i1 %91 to i32
  %93 = load i8, ptr %29, align 1, !tbaa !142, !range !143, !noundef !144
  %94 = trunc i8 %93 to i1
  %95 = zext i1 %94 to i32
  %96 = and i32 %95, %92
  %97 = icmp ne i32 %96, 0
  %98 = zext i1 %97 to i8
  store i8 %98, ptr %29, align 1, !tbaa !142
  call void @llvm.lifetime.end.p0(i64 8, ptr %35) #5
  call void @llvm.lifetime.end.p0(i64 4, ptr %34) #5
  br label %99

99:                                               ; preds = %56
  %100 = getelementptr inbounds nuw %"class.OpenImageIO::v3_1_0::ImageInput", ptr %37, i32 0, i32 1
  %101 = getelementptr inbounds nuw %"class.OpenImageIO::v3_1_0::ImageSpec", ptr %100, i32 0, i32 12
  %102 = load i32, ptr %101, align 8, !tbaa !435
  %103 = load i32, ptr %33, align 4, !tbaa !14
  %104 = add nsw i32 %103, %102
  store i32 %104, ptr %33, align 4, !tbaa !14
  br label %51, !llvm.loop !449

105:                                              ; preds = %55
  call void @llvm.lifetime.end.p0(i64 4, ptr %32) #5
  br label %106

106:                                              ; preds = %105
  %107 = getelementptr inbounds nuw %"class.OpenImageIO::v3_1_0::ImageInput", ptr %37, i32 0, i32 1
  %108 = getelementptr inbounds nuw %"class.OpenImageIO::v3_1_0::ImageSpec", ptr %107, i32 0, i32 13
  %109 = load i32, ptr %108, align 4, !tbaa !436
  %110 = load i32, ptr %30, align 4, !tbaa !14
  %111 = add nsw i32 %110, %109
  store i32 %111, ptr %30, align 4, !tbaa !14
  br label %39, !llvm.loop !450

112:                                              ; preds = %43
  %113 = load i8, ptr %29, align 1, !tbaa !142, !range !143, !noundef !144
  %114 = trunc i8 %113 to i1
  store i32 1, ptr %31, align 4
  call void @llvm.lifetime.end.p0(i64 1, ptr %29) #5
  ret i1 %114
}