; Function Attrs: mustprogress uwtable
define hidden noundef zeroext i1 @_ZN11OpenImageIO6v3_1_012OpenEXRInput30read_native_tiles_individuallyEiiiiiiiiiiPvll(ptr noundef nonnull align 8 dereferenceable(320) %0, i32 noundef %1, i32 noundef %2, i32 noundef %3, i32 noundef %4, i32 noundef %5, i32 noundef %6, i32 noundef %7, i32 noundef %8, i32 noundef %9, i32 noundef %10, ptr noundef %11, i64 noundef %12, i64 noundef %13) local_unnamed_addr #6 align 2 {
  %15 = icmp slt i32 %5, %6
  br i1 %15, label %.lr.ph39, label %._crit_edge40

.lr.ph39:                                         ; preds = %14
  %16 = getelementptr inbounds nuw i8, ptr %0, i64 60
  %17 = icmp slt i32 %3, %4
  %18 = getelementptr inbounds nuw i8, ptr %0, i64 56
  br i1 %17, label %.lr.ph.us.preheader, label %._crit_edge40

.lr.ph.us.preheader:                              ; preds = %.lr.ph39
  %.pre = load i32, ptr %16, align 4, !tbaa !355
  %.pre43.pre = load i32, ptr %18, align 8, !tbaa !354
  br label %.lr.ph.us

.lr.ph.us:                                        ; preds = %.lr.ph.us.preheader, %._crit_edge.us
  %.pre43 = phi i32 [ %34, %._crit_edge.us ], [ %.pre43.pre, %.lr.ph.us.preheader ]
  %19 = phi i32 [ %37, %._crit_edge.us ], [ %.pre, %.lr.ph.us.preheader ]
  %.037.us = phi i1 [ %33, %._crit_edge.us ], [ true, %.lr.ph.us.preheader ]
  %.03236.us = phi i32 [ %38, %._crit_edge.us ], [ %5, %.lr.ph.us.preheader ]
  %20 = add nsw i32 %19, %.03236.us
  %21 = sub nsw i32 %.03236.us, %5
  %22 = sext i32 %21 to i64
  %23 = mul nsw i64 %13, %22
  %24 = getelementptr inbounds i8, ptr %11, i64 %23
  br label %25

25:                                               ; preds = %.lr.ph.us, %25
  %26 = phi i32 [ %.pre43, %.lr.ph.us ], [ %34, %25 ]
  %.135.us = phi i1 [ %.037.us, %.lr.ph.us ], [ %33, %25 ]
  %.03334.us = phi i32 [ %3, %.lr.ph.us ], [ %35, %25 ]
  %27 = add nsw i32 %26, %.03334.us
  %28 = sub nsw i32 %.03334.us, %3
  %29 = sext i32 %28 to i64
  %30 = mul nsw i64 %12, %29
  %31 = getelementptr inbounds i8, ptr %24, i64 %30
  %32 = tail call noundef zeroext i1 @_ZN11OpenImageIO6v3_1_010ImageInput10read_tilesEiiiiiiiiiiNS0_8TypeDescEPvlll(ptr noundef nonnull align 8 dereferenceable(184) %0, i32 noundef %1, i32 noundef %2, i32 noundef %.03334.us, i32 noundef %27, i32 noundef %.03236.us, i32 noundef %20, i32 noundef %7, i32 noundef %8, i32 noundef %9, i32 noundef %10, i64 256, ptr noundef %31, i64 noundef %12, i64 noundef %13, i64 noundef -9223372036854775808)
  %33 = select i1 %32, i1 %.135.us, i1 false
  %34 = load i32, ptr %18, align 8, !tbaa !354
  %35 = add nsw i32 %34, %.03334.us
  %36 = icmp slt i32 %35, %4
  br i1 %36, label %25, label %._crit_edge.us, !llvm.loop !366

._crit_edge.us:                                   ; preds = %25
  %37 = load i32, ptr %16, align 4, !tbaa !355
  %38 = add nsw i32 %37, %.03236.us
  %39 = icmp slt i32 %38, %6
  br i1 %39, label %.lr.ph.us, label %._crit_edge40, !llvm.loop !367

._crit_edge40:                                    ; preds = %._crit_edge.us, %.lr.ph39, %14
  %.0.lcssa = phi i1 [ true, %14 ], [ true, %.lr.ph39 ], [ %33, %._crit_edge.us ]
  ret i1 %.0.lcssa
}